; Function Attrs: mustprogress nofree nosync nounwind willreturn memory(argmem: readwrite) uwtable
define dso_local void @_ZN2EA4StdC20SystemTimeToDateTimeERK11_SYSTEMTIMERNS0_8DateTimeE(ptr noundef nonnull readonly align 2 captures(none) dereferenceable(16) %time, ptr noundef nonnull align 8 dereferenceable(12) initializes((0, 12)) %dateTime) local_unnamed_addr #8 {
entry:
  %ref.tmp = alloca %"class.EA::StdC::DateTime", align 8
  %0 = load i16, ptr %time, align 2
  %conv = zext i16 %0 to i32
  %wMonth = getelementptr inbounds nuw i8, ptr %time, i64 2
  %1 = load i16, ptr %wMonth, align 2
  %conv1 = zext i16 %1 to i32
  %wDay = getelementptr inbounds nuw i8, ptr %time, i64 6
  %2 = load i16, ptr %wDay, align 2
  %conv2 = zext i16 %2 to i32
  %wHour = getelementptr inbounds nuw i8, ptr %time, i64 8
  %3 = load i16, ptr %wHour, align 2
  %conv3 = zext i16 %3 to i32
  %wMinute = getelementptr inbounds nuw i8, ptr %time, i64 10
  %4 = load i16, ptr %wMinute, align 2
  %conv4 = zext i16 %4 to i32
  %wSecond = getelementptr inbounds nuw i8, ptr %time, i64 12
  %5 = load i16, ptr %wSecond, align 2
  %conv5 = zext i16 %5 to i32
  store i64 0, ptr %ref.tmp, align 8
  %mnNanosecond.i = getelementptr inbounds nuw i8, ptr %ref.tmp, i64 8
  store i32 0, ptr %mnNanosecond.i, align 8
  call void @_ZN2EA4StdC8DateTime3SetEjjjjjjj(ptr noundef nonnull align 8 dereferenceable(12) %ref.tmp, i32 noundef %conv, i32 noundef %conv1, i32 noundef %conv2, i32 noundef %conv3, i32 noundef %conv4, i32 noundef %conv5, i32 noundef 0)
  %6 = load i64, ptr %ref.tmp, align 8
  store i64 %6, ptr %dateTime, align 8
  %7 = load i32, ptr %mnNanosecond.i, align 8
  %mnNanosecond3.i = getelementptr inbounds nuw i8, ptr %dateTime, i64 8
  store i32 %7, ptr %mnNanosecond3.i, align 8
  %wMilliseconds = getelementptr inbounds nuw i8, ptr %time, i64 14
  %8 = load i16, ptr %wMilliseconds, align 2
  %conv6 = zext i16 %8 to i32
  %mul = mul nuw nsw i32 %conv6, 1000000
  call void @_ZN2EA4StdC8DateTime3SetEjjjjjjj(ptr noundef nonnull align 8 dereferenceable(12) %dateTime, i32 noundef -1, i32 noundef -1, i32 noundef -1, i32 noundef -1, i32 noundef -1, i32 noundef -1, i32 noundef %mul)
  ret void
}